target datalayout = "e-m:e-p270:32:32-p271:32:32-p272:64:64-i64:64-i128:128-f80:128-n8:16:32:64-S128"
target triple = "x86_64-pc-linux-gnu"

%"class.pxrInternal_v0_24__pxrReserved__::TfFunctionRef" = type { ptr, ptr }
%"struct.pxrInternal_v0_24__pxrReserved__::Vt_ShapeData" = type { i64, [3 x i32] }
%class.anon = type { i8 }

; Function Attrs: mustprogress nounwind uwtable
define internal noundef i64 @"_ZZN32pxrInternal_v0_24__pxrReserved__16VtStreamOutArrayERSoPKNS_12Vt_ShapeDataENS_13TfFunctionRefIFvS0_EEEENK3$_0clEmm"(ptr noundef nonnull align 1 dereferenceable(1) %0, i64 noundef %1, i64 noundef %2) #3 align 2 {
  %4 = alloca ptr, align 8
  %5 = alloca i64, align 8
  %6 = alloca i64, align 8
  store ptr %0, ptr %4, align 8
  store i64 %1, ptr %5, align 8
  store i64 %2, ptr %6, align 8
  %7 = load i64, ptr %5, align 8
  %8 = load i64, ptr %6, align 8
  %9 = mul i64 %7, %8
  ret i64 %9
}

; Function Attrs: mustprogress uwtable
define internal noundef i32 @"_ZSt10accumulateIPKjiZN32pxrInternal_v0_24__pxrReserved__16VtStreamOutArrayERSoPKNS2_12Vt_ShapeDataENS2_13TfFunctionRefIFvS3_EEEE3$_0ET0_T_SC_SB_T1_"(ptr noundef %0, ptr noundef %1, i32 noundef %2) #0 {
  %4 = alloca %class.anon, align 1
  %5 = alloca ptr, align 8
  %6 = alloca ptr, align 8
  %7 = alloca i32, align 4
  store ptr %0, ptr %5, align 8
  store ptr %1, ptr %6, align 8
  store i32 %2, ptr %7, align 4
  br label %8

8:                                                ; preds = %20, %3
  %9 = load ptr, ptr %5, align 8
  %10 = load ptr, ptr %6, align 8
  %11 = icmp ne ptr %9, %10
  br i1 %11, label %12, label %23

12:                                               ; preds = %8
  %13 = load i32, ptr %7, align 4
  %14 = sext i32 %13 to i64
  %15 = load ptr, ptr %5, align 8
  %16 = load i32, ptr %15, align 4
  %17 = zext i32 %16 to i64
  %18 = call noundef i64 @"_ZZN32pxrInternal_v0_24__pxrReserved__16VtStreamOutArrayERSoPKNS_12Vt_ShapeDataENS_13TfFunctionRefIFvS0_EEEENK3$_0clEmm"(ptr noundef nonnull align 1 dereferenceable(1) %4, i64 noundef %14, i64 noundef %17)
  %19 = trunc i64 %18 to i32
  store i32 %19, ptr %7, align 4
  br label %20

20:                                               ; preds = %12
  %21 = load ptr, ptr %5, align 8
  %22 = getelementptr inbounds i32, ptr %21, i32 1
  store ptr %22, ptr %5, align 8
  br label %8, !llvm.loop !4

23:                                               ; preds = %8
  %24 = load i32, ptr %7, align 4
  ret i32 %24
}

; Function Attrs: mustprogress nounwind uwtable
define linkonce_odr noundef i32 @_ZNK32pxrInternal_v0_24__pxrReserved__12Vt_ShapeData7GetRankEv(ptr noundef nonnull align 8 dereferenceable(24) %0) #3 comdat align 2 {
  %2 = alloca ptr, align 8
  store ptr %0, ptr %2, align 8
  %3 = load ptr, ptr %2, align 8
  %4 = getelementptr inbounds nuw %"struct.pxrInternal_v0_24__pxrReserved__::Vt_ShapeData", ptr %3, i32 0, i32 1
  %5 = getelementptr inbounds [3 x i32], ptr %4, i64 0, i64 0
  %6 = load i32, ptr %5, align 8
  %7 = icmp eq i32 %6, 0
  br i1 %7, label %8, label %9

8:                                                ; preds = %1
  br label %23

9:                                                ; preds = %1
  %10 = getelementptr inbounds nuw %"struct.pxrInternal_v0_24__pxrReserved__::Vt_ShapeData", ptr %3, i32 0, i32 1
  %11 = getelementptr inbounds [3 x i32], ptr %10, i64 0, i64 1
  %12 = load i32, ptr %11, align 4
  %13 = icmp eq i32 %12, 0
  br i1 %13, label %14, label %15

14:                                               ; preds = %9
  br label %21

15:                                               ; preds = %9
  %16 = getelementptr inbounds nuw %"struct.pxrInternal_v0_24__pxrReserved__::Vt_ShapeData", ptr %3, i32 0, i32 1
  %17 = getelementptr inbounds [3 x i32], ptr %16, i64 0, i64 2
  %18 = load i32, ptr %17, align 8
  %19 = icmp eq i32 %18, 0
  %20 = select i1 %19, i32 3, i32 4
  br label %21

21:                                               ; preds = %15, %14
  %22 = phi i32 [ 2, %14 ], [ %20, %15 ]
  br label %23

23:                                               ; preds = %21, %8
  %24 = phi i32 [ 1, %8 ], [ %22, %21 ]
  ret i32 %24
}

; Function Attrs: mustprogress uwtable
define void @_ZN32pxrInternal_v0_24__pxrReserved__16VtStreamOutArrayERSoPKNS_12Vt_ShapeDataENS_13TfFunctionRefIFvS0_EEE(ptr noundef nonnull align 8 dereferenceable(8) %0, ptr noundef %1, ptr %2, ptr %3) #0 {
  %5 = alloca %"class.pxrInternal_v0_24__pxrReserved__::TfFunctionRef", align 8
  %6 = alloca ptr, align 8
  %7 = alloca ptr, align 8
  %8 = alloca i64, align 8
  %9 = alloca i64, align 8
  %10 = alloca i64, align 8
  %11 = alloca %"struct.pxrInternal_v0_24__pxrReserved__::Vt_ShapeData", align 8
  %12 = alloca %"class.pxrInternal_v0_24__pxrReserved__::TfFunctionRef", align 8
  %13 = getelementptr inbounds nuw { ptr, ptr }, ptr %5, i32 0, i32 0
  store ptr %2, ptr %13, align 8
  %14 = getelementptr inbounds nuw { ptr, ptr }, ptr %5, i32 0, i32 1
  store ptr %3, ptr %14, align 8
  store ptr %0, ptr %6, align 8
  store ptr %1, ptr %7, align 8
  %15 = load ptr, ptr %7, align 8
  %16 = getelementptr inbounds nuw %"struct.pxrInternal_v0_24__pxrReserved__::Vt_ShapeData", ptr %15, i32 0, i32 1
  %17 = getelementptr inbounds [3 x i32], ptr %16, i64 0, i64 0
  %18 = load ptr, ptr %7, align 8
  %19 = getelementptr inbounds nuw %"struct.pxrInternal_v0_24__pxrReserved__::Vt_ShapeData", ptr %18, i32 0, i32 1
  %20 = getelementptr inbounds [3 x i32], ptr %19, i64 0, i64 0
  %21 = load ptr, ptr %7, align 8
  %22 = call noundef i32 @_ZNK32pxrInternal_v0_24__pxrReserved__12Vt_ShapeData7GetRankEv(ptr noundef nonnull align 8 dereferenceable(24) %21)
  %23 = zext i32 %22 to i64
  %24 = getelementptr inbounds i32, ptr %20, i64 %23
  %25 = getelementptr inbounds i32, ptr %24, i64 -1
  %26 = call noundef i32 @"_ZSt10accumulateIPKjiZN32pxrInternal_v0_24__pxrReserved__16VtStreamOutArrayERSoPKNS2_12Vt_ShapeDataENS2_13TfFunctionRefIFvS3_EEEE3$_0ET0_T_SC_SB_T1_"(ptr noundef %17, ptr noundef %25, i32 noundef 1)
  %27 = sext i32 %26 to i64
  store i64 %27, ptr %8, align 8
  %28 = load i64, ptr %8, align 8
  %29 = icmp ne i64 %28, 0
  br i1 %29, label %30, label %36

30:                                               ; preds = %4
  %31 = load ptr, ptr %7, align 8
  %32 = getelementptr inbounds nuw %"struct.pxrInternal_v0_24__pxrReserved__::Vt_ShapeData", ptr %31, i32 0, i32 0
  %33 = load i64, ptr %32, align 8
  %34 = load i64, ptr %8, align 8
  %35 = udiv i64 %33, %34
  br label %37

36:                                               ; preds = %4
  br label %37

37:                                               ; preds = %36, %30
  %38 = phi i64 [ %35, %30 ], [ 0, %36 ]
  store i64 %38, ptr %9, align 8
  %39 = load i64, ptr %8, align 8
  %40 = icmp ne i64 %39, 0
  br i1 %40, label %41, label %47

41:                                               ; preds = %37
  %42 = load ptr, ptr %7, align 8
  %43 = getelementptr inbounds nuw %"struct.pxrInternal_v0_24__pxrReserved__::Vt_ShapeData", ptr %42, i32 0, i32 0
  %44 = load i64, ptr %43, align 8
  %45 = load i64, ptr %8, align 8
  %46 = urem i64 %44, %45
  br label %48

47:                                               ; preds = %37
  br label %48

48:                                               ; preds = %47, %41
  %49 = phi i64 [ %46, %41 ], [ 0, %47 ]
  store i64 %49, ptr %10, align 8
  %50 = load i64, ptr %10, align 8
  %51 = icmp ne i64 %50, 0
  br i1 %51, label %52, label %57

52:                                               ; preds = %48
  %53 = load ptr, ptr %7, align 8
  %54 = getelementptr inbounds nuw %"struct.pxrInternal_v0_24__pxrReserved__::Vt_ShapeData", ptr %53, i32 0, i32 0
  %55 = load i64, ptr %54, align 8
  %56 = getelementptr inbounds nuw %"struct.pxrInternal_v0_24__pxrReserved__::Vt_ShapeData", ptr %11, i32 0, i32 0
  store i64 %55, ptr %56, align 8
  store ptr %11, ptr %7, align 8
  br label %57

57:                                               ; preds = %52, %48
  %58 = load ptr, ptr %6, align 8
  %59 = load ptr, ptr %7, align 8
  call void @llvm.memcpy.p0.p0.i64(ptr align 8 %12, ptr align 8 %5, i64 16, i1 false)
  %60 = load i64, ptr %9, align 8
  %61 = getelementptr inbounds nuw { ptr, ptr }, ptr %12, i32 0, i32 0
  %62 = load ptr, ptr %61, align 8
  %63 = getelementptr inbounds nuw { ptr, ptr }, ptr %12, i32 0, i32 1
  %64 = load ptr, ptr %63, align 8
  call void @_ZN32pxrInternal_v0_24__pxrReserved__12_GLOBAL__N_121_StreamArrayRecursiveERSoRKNS_12Vt_ShapeDataENS_13TfFunctionRefIFvS1_EEEmm(ptr noundef nonnull align 8 dereferenceable(8) %58, ptr noundef nonnull align 8 dereferenceable(24) %59, ptr %62, ptr %64, i64 noundef %60, i64 noundef 0)
  ret void
}